	.file	"file2.c"
	.option nopic
	.attribute arch, "rv32i2p0"
	.attribute unaligned_access, 0
	.attribute stack_align, 16
	.text
.Ltext0:
	.cfi_sections	.debug_frame
	.align	2
	.globl	exit
	.type	exit, @function
exit:
.LFB0:
	.file 1 "file2.c"
	.loc 1 3 21
	.cfi_startproc
	addi	sp,sp,-32
	.cfi_def_cfa_offset 32
	sw	s0,28(sp)
	.cfi_offset 8, -4
	addi	s0,sp,32
	.cfi_def_cfa 8, 0
	sw	a0,-20(s0)
	.loc 1 4 3
	lw	a5,-20(s0)
 #APP
# 4 "file2.c" 1
	mv a0, a5           # return code
li a7, 93           # syscall exit (93) 
ecall
# 0 "" 2
	.loc 1 12 1
 #NO_APP
	nop
	lw	s0,28(sp)
	.cfi_restore 8
	.cfi_def_cfa 2, 32
	addi	sp,sp,32
	.cfi_def_cfa_offset 0
	jr	ra
	.cfi_endproc
.LFE0:
	.size	exit, .-exit
	.align	2
	.globl	write
	.type	write, @function
write:
.LFB1:
	.loc 1 14 49
	.cfi_startproc
	addi	sp,sp,-32
	.cfi_def_cfa_offset 32
	sw	s0,28(sp)
	.cfi_offset 8, -4
	addi	s0,sp,32
	.cfi_def_cfa 8, 0
	sw	a0,-20(s0)
	sw	a1,-24(s0)
	sw	a2,-28(s0)
	.loc 1 15 3
	lw	a5,-20(s0)
	lw	a4,-24(s0)
	lw	a3,-28(s0)
 #APP
# 15 "file2.c" 1
	mv a0, a5           # file descriptor
mv a1, a4           # buffer 
mv a2, a3           # size 
li a7, 64           # syscall write (64) 
ecall
# 0 "" 2
	.loc 1 25 1
 #NO_APP
	nop
	lw	s0,28(sp)
	.cfi_restore 8
	.cfi_def_cfa 2, 32
	addi	sp,sp,32
	.cfi_def_cfa_offset 0
	jr	ra
	.cfi_endproc
.LFE1:
	.size	write, .-write
	.align	2
	.globl	_start
	.type	_start, @function
_start:
.LFB2:
	.loc 1 27 15
	.cfi_startproc
	addi	sp,sp,-32
	.cfi_def_cfa_offset 32
	sw	ra,28(sp)
	sw	s0,24(sp)
	.cfi_offset 1, -4
	.cfi_offset 8, -8
	addi	s0,sp,32
	.cfi_def_cfa 8, 0
	.loc 1 28 18
	call	main
	sw	a0,-20(s0)
	.loc 1 29 3
	lw	a0,-20(s0)
	call	exit
	.cfi_endproc
.LFE2:
	.size	_start, .-_start
.Letext0: